Certificate:
    Data:
        Version: 3 (0x2)
        Serial Number: 3 (0x3)
        Signature Algorithm: sha256WithRSAEncryption
        Issuer: CN=Dev-CA @ Cisco, C=CA, ST=Ontario, L=Toronto, O=Cisco/emailAddress=dev@cisco.com
        Validity
            Not Before: Nov 30 23:10:42 2023 GMT
            Not After : Nov 27 23:10:42 2033 GMT
        Subject: CN=root
        Subject Public Key Info:
            Public Key Algorithm: rsaEncryption
                Public-Key: (2048 bit)
                Modulus:
                    00:c3:84:43:15:ce:22:fd:5d:ac:d4:3f:49:57:b9:
                    5b:05:02:52:06:86:9b:7b:12:1b:92:6f:9a:a3:7c:
                    e1:34:71:d6:48:2c:3f:df:15:cd:3d:31:a5:e3:f5:
                    16:1b:8c:17:aa:53:f6:ac:8b:f2:13:e3:53:8e:df:
                    87:64:c8:f1:c9:22:9c:ad:fc:12:97:51:23:1e:2b:
                    ca:e1:15:82:6c:be:ef:cc:a4:74:90:4d:f4:f6:91:
                    3e:d7:d9:07:1d:f5:52:2d:8a:09:54:1a:f9:85:33:
                    6c:4b:b5:47:51:5c:4c:46:2f:2f:39:a9:77:50:bf:
                    60:a7:b5:18:6c:42:09:c3:c3:a4:85:d7:43:40:4d:
                    82:d9:b8:f0:73:69:96:e5:1d:f4:7b:46:63:7c:19:
                    99:45:ed:1d:ad:1e:2d:55:46:b7:f0:4d:78:fe:d7:
                    86:3f:65:62:37:33:78:7e:d1:ca:85:77:03:1d:73:
                    56:75:b1:fd:3a:51:e4:64:d0:70:62:cb:72:bc:35:
                    35:f1:08:48:98:9b:2e:f6:df:27:9a:ff:25:7a:81:
                    ea:f8:0c:af:b7:75:54:a8:75:87:53:32:80:00:af:
                    b8:72:28:22:41:b0:6c:f9:13:74:3d:aa:34:01:92:
                    1f:80:52:3c:ba:cd:e0:fd:b8:2c:84:9c:75:68:a8:
                    e6:e3
                Exponent: 65537 (0x10001)
        X509v3 extensions:
            X509v3 Key Usage: critical
                Digital Signature, Key Encipherment
            X509v3 Extended Key Usage: 
                TLS Web Client Authentication
            X509v3 Subject Alternative Name: critical
                DNS:localhost, IP Address:127.0.0.1
            X509v3 Subject Key Identifier: 
                DC:72:AF:20:F2:0E:BC:EF:8B:EA:64:C9:48:3B:F3:E3:02:49:5F:72
            X509v3 Authority Key Identifier: 
                B4:91:21:1A:AD:CF:87:C7:C6:B2:1C:61:8F:C8:C5:3F:CB:1D:04:F2
    Signature Algorithm: sha256WithRSAEncryption
    Signature Value:
        0f:01:c9:7f:67:00:12:33:0d:6f:63:5d:12:e1:de:56:82:33:
        75:ac:68:54:89:02:bd:45:e4:a8:29:d4:b3:5f:8e:45:35:2f:
        e4:6f:aa:e4:45:d4:de:5d:da:ec:12:3c:55:d4:08:3b:b0:95:
        fb:ae:d2:c4:24:3e:75:38:64:5c:a0:4a:92:29:00:65:12:71:
        32:48:c0:a2:63:fa:86:a8:fa:41:41:b6:a4:6b:62:b0:a4:14:
        2f:24:70:37:93:61:dc:7e:30:9d:90:59:b4:72:f1:6c:24:9e:
        9e:32:6a:21:e6:ae:a7:d2:0c:11:d0:79:94:d0:12:52:e7:86:
        39:79:6c:57:48:72:0e:6e:54:91:b0:07:a3:14:01:5e:79:59:
        8f:e7:3f:5d:a0:b2:ae:54:db:50:77:90:c7:09:bd:3f:b0:9c:
        43:9c:39:98:3d:ad:d8:60:6e:f3:7a:6c:4d:f9:91:38:9c:b5:
        6e:8e:5d:41:1d:81:c1:55:ae:82:ee:b6:45:be:e0:c9:0d:aa:
        fe:d7:58:fc:bc:a3:dd:46:4e:7e:47:67:59:39:2a:ad:95:ae:
        ca:d4:28:75:75:17:86:3b:85:9f:49:0e:5b:04:70:09:72:99:
        98:bb:e3:84:7f:d7:24:5e:28:65:5f:df:ad:58:f4:76:54:95:
        98:0d:d3:10:fe:37:aa:a7:4f:13:51:a5:f6:a4:f2:d8:8a:1b:
        2e:1a:ef:fa:10:38:b2:67:29:dd:dd:33:57:8a:19:62:a3:54:
        6d:2c:1e:56:86:23:17:4d:a9:dc:19:93:f3:a4:3a:69:05:f3:
        ee:08:a5:04:9c:4f:f4:ff:ac:e7:a6:7b:d6:1c:a2:29:c8:1d:
        12:5e:70:75:36:01:95:74:63:b7:e4:c2:8f:71:6b:1a:e5:93:
        3d:ce:73:28:8b:dc:bd:33:f5:07:78:2f:89:cd:7e:2f:7a:01:
        34:1c:33:2a:18:52:de:15:4c:6c:74:24:56:4b:6b:1f:a6:e6:
        23:56:3e:55:25:c8:05:73:db:a3:8d:ff:d9:30:96:d0:16:06:
        15:5c:a0:6c:b3:f2:e1:71:bc:70:3d:fd:2f:4d:ef:b9:f7:10:
        97:ad:4b:7e:db:0d:d6:24:0f:65:64:73:09:e7:7f:55:4b:2b:
        00:5c:f8:db:1c:44:c8:12:a7:73:95:99:d5:77:59:a4:7c:8f:
        1f:77:bb:2c:02:9f:bd:3c:24:09:41:3e:95:18:f0:0f:c1:b0:
        6b:59:6d:fe:e2:c1:fd:3a:94:64:e6:1d:b8:51:cb:4b:3e:05:
        81:06:b4:7d:c2:69:e7:f2:9b:63:84:5d:c6:cb:19:89:76:45:
        3a:72:7c:3c:e3:ed:c8:32
-----BEGIN CERTIFICATE-----
MIIEijCCAnKgAwIBAgIBAzANBgkqhkiG9w0BAQsFADB4MRcwFQYDVQQDDA5EZXYt
Q0EgQCBDaXNjbzELMAkGA1UEBhMCQ0ExEDAOBgNVBAgMB09udGFyaW8xEDAOBgNV
BAcMB1Rvcm9udG8xDjAMBgNVBAoMBUNpc2NvMRwwGgYJKoZIhvcNAQkBFg1kZXZA
Y2lzY28uY29tMB4XDTIzMTEzMDIzMTA0MloXDTMzMTEyNzIzMTA0MlowDzENMAsG
A1UEAwwEcm9vdDCCASIwDQYJKoZIhvcNAQEBBQADggEPADCCAQoCggEBAMOEQxXO
Iv1drNQ/SVe5WwUCUgaGm3sSG5JvmqN84TRx1kgsP98VzT0xpeP1FhuMF6pT9qyL
8hPjU47fh2TI8ckinK38EpdRIx4ryuEVgmy+78ykdJBN9PaRPtfZBx31Ui2KCVQa
+YUzbEu1R1FcTEYvLzmpd1C/YKe1GGxCCcPDpIXXQ0BNgtm48HNpluUd9HtGY3wZ
mUXtHa0eLVVGt/BNeP7Xhj9lYjczeH7RyoV3Ax1zVnWx/TpR5GTQcGLLcrw1NfEI
SJibLvbfJ5r/JXqB6vgMr7d1VKh1h1MygACvuHIoIkGwbPkTdD2qNAGSH4BSPLrN
4P24LIScdWio5uMCAwEAAaOBhzCBhDAOBgNVHQ8BAf8EBAMCBaAwEwYDVR0lBAww
CgYIKwYBBQUHAwIwHQYDVR0RAQH/BBMwEYIJbG9jYWxob3N0hwR/AAABMB0GA1Ud
DgQWBBTccq8g8g6874vqZMlIO/PjAklfcjAfBgNVHSMEGDAWgBS0kSEarc+Hx8ay
HGGPyMU/yx0E8jANBgkqhkiG9w0BAQsFAAOCAgEADwHJf2cAEjMNb2NdEuHeVoIz
daxoVIkCvUXkqCnUs1+ORTUv5G+q5EXU3l3a7BI8VdQIO7CV+67SxCQ+dThkXKBK
kikAZRJxMkjAomP6hqj6QUG2pGtisKQULyRwN5Nh3H4wnZBZtHLxbCSenjJqIeau
p9IMEdB5lNASUueGOXlsV0hyDm5UkbAHoxQBXnlZj+c/XaCyrlTbUHeQxwm9P7Cc
Q5w5mD2t2GBu83psTfmROJy1bo5dQR2BwVWugu62Rb7gyQ2q/tdY/Lyj3UZOfkdn
WTkqrZWuytQodXUXhjuFn0kOWwRwCXKZmLvjhH/XJF4oZV/frVj0dlSVmA3TEP43
qqdPE1Gl9qTy2IobLhrv+hA4smcp3d0zV4oZYqNUbSweVoYjF02p3BmT86Q6aQXz
7gilBJxP9P+s56Z71hyiKcgdEl5wdTYBlXRjt+TCj3FrGuWTPc5zKIvcvTP1B3gv
ic1+L3oBNBwzKhhS3hVMbHQkVktrH6bmI1Y+VSXIBXPbo43/2TCW0BYGFVygbLPy
4XG8cD39L03vufcQl61LftsN1iQPZWRzCed/VUsrAFz42xxEyBKnc5WZ1XdZpHyP
H3e7LAKfvTwkCUE+lRjwD8Gwa1lt/uLB/TqUZOYduFHLSz4FgQa0fcJp5/KbY4Rd
xssZiXZFOnJ8POPtyDI=
-----END CERTIFICATE-----
